target datalayout = "e-m:e-p270:32:32-p271:32:32-p272:64:64-i64:64-i128:128-f80:128-n8:16:32:64-S128"
target triple = "x86_64-pc-linux-gnu"

%struct.AVFormatContext = type { ptr, ptr, ptr, ptr, ptr, i32, i32, ptr, i32, ptr, i32, ptr, ptr, i64, i64, i64, i32, i32, i32, i64, i64, ptr, i32, i32, ptr, i32, i32, i32, i32, ptr, i64, i32, i32, %struct.AVIOInterruptCB, i32, i32, i32, i32, i64, i32, i32, i32, i32, i32, i32, i32, i32, i32, i32, i32, i32, i64, i32, i32, i32, i32, i32, ptr, ptr, ptr, ptr, i32, ptr, ptr, ptr, ptr, i32, ptr, ptr, i64, ptr, ptr, ptr, i64 }
%struct.AVIOInterruptCB = type { ptr, ptr }
%struct.ogg = type { ptr, i32, i32, i32, i64, ptr }
%struct.ogg_stream = type { ptr, i32, i32, i32, i32, i32, i32, i32, i64, i64, i64, i64, i64, i64, i32, ptr, i32, i32, i32, [255 x i8], i32, i32, i32, i32, i32, i32, i32, i32, ptr, i64, ptr }
%struct.AVStream = type { ptr, i32, i32, ptr, ptr, %struct.AVRational, i64, i64, i64, i32, i32, %struct.AVRational, ptr, %struct.AVRational, %struct.AVPacket, i32, %struct.AVRational, i32 }
%struct.AVPacket = type { ptr, i64, i64, ptr, i32, i32, i32, ptr, i32, i64, i64, ptr, ptr, %struct.AVRational }
%struct.AVRational = type { i32, i32 }
%struct.AVCodecParameters = type { i32, i32, i32, ptr, i32, ptr, i32, i32, i64, i32, i32, i32, i32, i32, i32, %struct.AVRational, %struct.AVRational, i32, i32, i32, i32, i32, i32, i32, %struct.AVChannelLayout, i32, i32, i32, i32, i32, i32 }
%struct.AVChannelLayout = type { i32, i32, %union.anon, ptr }
%union.anon = type { i64 }
%struct.FFFormatContext = type { %struct.AVFormatContext, i32, %struct.PacketList, i64, ptr, ptr, i32, ptr, i32 }
%struct.PacketList = type { ptr, ptr }

@.str.23 = private unnamed_addr constant [30 x i8] c"Assertion %s failed at %s:%d\0A\00", align 1
@.str.24 = private unnamed_addr constant [29 x i8] c"stream_index < ogg->nstreams\00", align 1
@.str.25 = private unnamed_addr constant [21 x i8] c"libavformat/oggdec.c\00", align 1

; Function Attrs: alwaysinline nounwind uwtable
define internal ptr @ffformatcontext(ptr noundef %0) #5 {
  %2 = alloca ptr, align 8
  store ptr %0, ptr %2, align 8, !tbaa !14
  %3 = load ptr, ptr %2, align 8, !tbaa !14
  ret ptr %3
}

; Function Attrs: alwaysinline nounwind uwtable
define internal i64 @avio_tell(ptr noundef %0) #5 {
  %2 = alloca ptr, align 8
  store ptr %0, ptr %2, align 8, !tbaa !94
  %3 = load ptr, ptr %2, align 8, !tbaa !94
  %4 = call i64 @avio_seek(ptr noundef %3, i64 noundef 0, i32 noundef 1)
  ret i64 %4
}

; Function Attrs: nounwind uwtable
define internal i32 @ogg_reset(ptr noundef %0) #0 {
  %2 = alloca ptr, align 8
  %3 = alloca ptr, align 8
  %4 = alloca i32, align 4
  %5 = alloca i64, align 8
  %6 = alloca ptr, align 8
  store ptr %0, ptr %2, align 8, !tbaa !14
  call void @llvm.lifetime.start.p0(i64 8, ptr %3) #10
  %7 = load ptr, ptr %2, align 8, !tbaa !14
  %8 = getelementptr inbounds nuw %struct.AVFormatContext, ptr %7, i32 0, i32 3
  %9 = load ptr, ptr %8, align 8, !tbaa !16
  store ptr %9, ptr %3, align 8, !tbaa !31
  call void @llvm.lifetime.start.p0(i64 4, ptr %4) #10
  call void @llvm.lifetime.start.p0(i64 8, ptr %5) #10
  %10 = load ptr, ptr %2, align 8, !tbaa !14
  %11 = getelementptr inbounds nuw %struct.AVFormatContext, ptr %10, i32 0, i32 4
  %12 = load ptr, ptr %11, align 8, !tbaa !93
  %13 = call i64 @avio_tell(ptr noundef %12)
  store i64 %13, ptr %5, align 8, !tbaa !69
  store i32 0, ptr %4, align 4, !tbaa !37
  br label %14

14:                                               ; preds = %69, %1
  %15 = load i32, ptr %4, align 4, !tbaa !37
  %16 = load ptr, ptr %3, align 8, !tbaa !31
  %17 = getelementptr inbounds nuw %struct.ogg, ptr %16, i32 0, i32 1
  %18 = load i32, ptr %17, align 8, !tbaa !41
  %19 = icmp slt i32 %15, %18
  br i1 %19, label %20, label %72

20:                                               ; preds = %14
  call void @llvm.lifetime.start.p0(i64 8, ptr %6) #10
  %21 = load ptr, ptr %3, align 8, !tbaa !31
  %22 = getelementptr inbounds nuw %struct.ogg, ptr %21, i32 0, i32 0
  %23 = load ptr, ptr %22, align 8, !tbaa !42
  %24 = load i32, ptr %4, align 4, !tbaa !37
  %25 = sext i32 %24 to i64
  %26 = getelementptr inbounds %struct.ogg_stream, ptr %23, i64 %25
  store ptr %26, ptr %6, align 8, !tbaa !43
  %27 = load ptr, ptr %6, align 8, !tbaa !43
  %28 = getelementptr inbounds nuw %struct.ogg_stream, ptr %27, i32 0, i32 2
  store i32 0, ptr %28, align 4, !tbaa !106
  %29 = load ptr, ptr %6, align 8, !tbaa !43
  %30 = getelementptr inbounds nuw %struct.ogg_stream, ptr %29, i32 0, i32 3
  store i32 0, ptr %30, align 8, !tbaa !102
  %31 = load ptr, ptr %6, align 8, !tbaa !43
  %32 = getelementptr inbounds nuw %struct.ogg_stream, ptr %31, i32 0, i32 4
  store i32 0, ptr %32, align 4, !tbaa !103
  %33 = load ptr, ptr %6, align 8, !tbaa !43
  %34 = getelementptr inbounds nuw %struct.ogg_stream, ptr %33, i32 0, i32 8
  store i64 -1, ptr %34, align 8, !tbaa !110
  %35 = load ptr, ptr %6, align 8, !tbaa !43
  %36 = getelementptr inbounds nuw %struct.ogg_stream, ptr %35, i32 0, i32 10
  store i64 -9223372036854775808, ptr %36, align 8, !tbaa !63
  %37 = load ptr, ptr %6, align 8, !tbaa !43
  %38 = getelementptr inbounds nuw %struct.ogg_stream, ptr %37, i32 0, i32 11
  store i64 -9223372036854775808, ptr %38, align 8, !tbaa !143
  %39 = load ptr, ptr %6, align 8, !tbaa !43
  %40 = getelementptr inbounds nuw %struct.ogg_stream, ptr %39, i32 0, i32 12
  store i64 -1, ptr %40, align 8, !tbaa !117
  %41 = load ptr, ptr %6, align 8, !tbaa !43
  %42 = getelementptr inbounds nuw %struct.ogg_stream, ptr %41, i32 0, i32 13
  store i64 0, ptr %42, align 8, !tbaa !111
  %43 = load ptr, ptr %6, align 8, !tbaa !43
  %44 = getelementptr inbounds nuw %struct.ogg_stream, ptr %43, i32 0, i32 17
  store i32 0, ptr %44, align 4, !tbaa !105
  %45 = load ptr, ptr %6, align 8, !tbaa !43
  %46 = getelementptr inbounds nuw %struct.ogg_stream, ptr %45, i32 0, i32 18
  store i32 0, ptr %46, align 8, !tbaa !104
  %47 = load ptr, ptr %6, align 8, !tbaa !43
  %48 = getelementptr inbounds nuw %struct.ogg_stream, ptr %47, i32 0, i32 20
  store i32 0, ptr %48, align 4, !tbaa !108
  %49 = load ptr, ptr %6, align 8, !tbaa !43
  %50 = getelementptr inbounds nuw %struct.ogg_stream, ptr %49, i32 0, i32 24
  store i32 0, ptr %50, align 4, !tbaa !133
  %51 = load i64, ptr %5, align 8, !tbaa !69
  %52 = load ptr, ptr %2, align 8, !tbaa !14
  %53 = call ptr @ffformatcontext(ptr noundef %52)
  %54 = getelementptr inbounds nuw %struct.FFFormatContext, ptr %53, i32 0, i32 3
  %55 = load i64, ptr %54, align 8, !tbaa !113
  %56 = icmp sle i64 %51, %55
  br i1 %56, label %57, label %60

57:                                               ; preds = %20
  %58 = load ptr, ptr %6, align 8, !tbaa !43
  %59 = getelementptr inbounds nuw %struct.ogg_stream, ptr %58, i32 0, i32 10
  store i64 0, ptr %59, align 8, !tbaa !63
  br label %60

60:                                               ; preds = %57, %20
  %61 = load ptr, ptr %6, align 8, !tbaa !43
  %62 = getelementptr inbounds nuw %struct.ogg_stream, ptr %61, i32 0, i32 26
  store i32 0, ptr %62, align 4, !tbaa !81
  %63 = load ptr, ptr %6, align 8, !tbaa !43
  %64 = getelementptr inbounds nuw %struct.ogg_stream, ptr %63, i32 0, i32 27
  store i32 0, ptr %64, align 8, !tbaa !82
  %65 = load ptr, ptr %6, align 8, !tbaa !43
  %66 = getelementptr inbounds nuw %struct.ogg_stream, ptr %65, i32 0, i32 28
  call void @av_freep(ptr noundef %66)
  %67 = load ptr, ptr %6, align 8, !tbaa !43
  %68 = getelementptr inbounds nuw %struct.ogg_stream, ptr %67, i32 0, i32 29
  store i64 0, ptr %68, align 8, !tbaa !85
  call void @llvm.lifetime.end.p0(i64 8, ptr %6) #10
  br label %69

69:                                               ; preds = %60
  %70 = load i32, ptr %4, align 4, !tbaa !37
  %71 = add nsw i32 %70, 1
  store i32 %71, ptr %4, align 4, !tbaa !37
  br label %14, !llvm.loop !155

72:                                               ; preds = %14
  %73 = load ptr, ptr %3, align 8, !tbaa !31
  %74 = getelementptr inbounds nuw %struct.ogg, ptr %73, i32 0, i32 4
  store i64 -1, ptr %74, align 8, !tbaa !126
  %75 = load ptr, ptr %3, align 8, !tbaa !31
  %76 = getelementptr inbounds nuw %struct.ogg, ptr %75, i32 0, i32 3
  store i32 -1, ptr %76, align 8, !tbaa !33
  call void @llvm.lifetime.end.p0(i64 8, ptr %5) #10
  call void @llvm.lifetime.end.p0(i64 4, ptr %4) #10
  call void @llvm.lifetime.end.p0(i64 8, ptr %3) #10
  ret i32 0
}

; Function Attrs: nounwind uwtable
define internal i32 @ogg_read_seek(ptr noundef %0, i32 noundef %1, i64 noundef %2, i32 noundef %3) #0 {
  %5 = alloca ptr, align 8
  %6 = alloca i32, align 4
  %7 = alloca i64, align 8
  %8 = alloca i32, align 4
  %9 = alloca ptr, align 8
  %10 = alloca ptr, align 8
  %11 = alloca i32, align 4
  store ptr %0, ptr %5, align 8, !tbaa !14
  store i32 %1, ptr %6, align 4, !tbaa !37
  store i64 %2, ptr %7, align 8, !tbaa !69
  store i32 %3, ptr %8, align 4, !tbaa !37
  call void @llvm.lifetime.start.p0(i64 8, ptr %9) #10
  %12 = load ptr, ptr %5, align 8, !tbaa !14
  %13 = getelementptr inbounds nuw %struct.AVFormatContext, ptr %12, i32 0, i32 3
  %14 = load ptr, ptr %13, align 8, !tbaa !16
  store ptr %14, ptr %9, align 8, !tbaa !31
  call void @llvm.lifetime.start.p0(i64 8, ptr %10) #10
  %15 = load ptr, ptr %9, align 8, !tbaa !31
  %16 = getelementptr inbounds nuw %struct.ogg, ptr %15, i32 0, i32 0
  %17 = load ptr, ptr %16, align 8, !tbaa !42
  %18 = load i32, ptr %6, align 4, !tbaa !37
  %19 = sext i32 %18 to i64
  %20 = getelementptr inbounds %struct.ogg_stream, ptr %17, i64 %19
  store ptr %20, ptr %10, align 8, !tbaa !43
  call void @llvm.lifetime.start.p0(i64 4, ptr %11) #10
  br label %21

21:                                               ; preds = %4
  %22 = load i32, ptr %6, align 4, !tbaa !37
  %23 = load ptr, ptr %9, align 8, !tbaa !31
  %24 = getelementptr inbounds nuw %struct.ogg, ptr %23, i32 0, i32 1
  %25 = load i32, ptr %24, align 8, !tbaa !41
  %26 = icmp slt i32 %22, %25
  br i1 %26, label %28, label %27

27:                                               ; preds = %21
  call void (ptr, i32, ptr, ...) @av_log(ptr noundef null, i32 noundef 0, ptr noundef @.str.23, ptr noundef @.str.24, ptr noundef @.str.25, i32 noundef 942)
  call void @abort() #11
  unreachable

28:                                               ; preds = %21
  br label %29

29:                                               ; preds = %28
  br label %30

30:                                               ; preds = %29
  %31 = load ptr, ptr %5, align 8, !tbaa !14
  %32 = call i32 @ogg_reset(ptr noundef %31)
  %33 = load ptr, ptr %5, align 8, !tbaa !14
  %34 = getelementptr inbounds nuw %struct.AVFormatContext, ptr %33, i32 0, i32 7
  %35 = load ptr, ptr %34, align 8, !tbaa !53
  %36 = load i32, ptr %6, align 4, !tbaa !37
  %37 = sext i32 %36 to i64
  %38 = getelementptr inbounds ptr, ptr %35, i64 %37
  %39 = load ptr, ptr %38, align 8, !tbaa !54
  %40 = getelementptr inbounds nuw %struct.AVStream, ptr %39, i32 0, i32 3
  %41 = load ptr, ptr %40, align 8, !tbaa !87
  %42 = getelementptr inbounds nuw %struct.AVCodecParameters, ptr %41, i32 0, i32 0
  %43 = load i32, ptr %42, align 8, !tbaa !88
  %44 = icmp eq i32 %43, 0
  br i1 %44, label %45, label %52

45:                                               ; preds = %30
  %46 = load i32, ptr %8, align 4, !tbaa !37
  %47 = and i32 %46, 4
  %48 = icmp ne i32 %47, 0
  br i1 %48, label %52, label %49

49:                                               ; preds = %45
  %50 = load ptr, ptr %10, align 8, !tbaa !43
  %51 = getelementptr inbounds nuw %struct.ogg_stream, ptr %50, i32 0, i32 22
  store i32 1, ptr %51, align 4, !tbaa !70
  br label %52

52:                                               ; preds = %49, %45, %30
  %53 = load ptr, ptr %5, align 8, !tbaa !14
  %54 = load i32, ptr %6, align 4, !tbaa !37
  %55 = load i64, ptr %7, align 8, !tbaa !69
  %56 = load i32, ptr %8, align 4, !tbaa !37
  %57 = call i32 @ff_seek_frame_binary(ptr noundef %53, i32 noundef %54, i64 noundef %55, i32 noundef %56)
  store i32 %57, ptr %11, align 4, !tbaa !37
  %58 = load ptr, ptr %5, align 8, !tbaa !14
  %59 = call i32 @ogg_reset(ptr noundef %58)
  %60 = load ptr, ptr %9, align 8, !tbaa !31
  %61 = getelementptr inbounds nuw %struct.ogg, ptr %60, i32 0, i32 0
  %62 = load ptr, ptr %61, align 8, !tbaa !42
  %63 = load i32, ptr %6, align 4, !tbaa !37
  %64 = sext i32 %63 to i64
  %65 = getelementptr inbounds %struct.ogg_stream, ptr %62, i64 %64
  store ptr %65, ptr %10, align 8, !tbaa !43
  %66 = load i32, ptr %11, align 4, !tbaa !37
  %67 = icmp slt i32 %66, 0
  br i1 %67, label %68, label %71

68:                                               ; preds = %52
  %69 = load ptr, ptr %10, align 8, !tbaa !43
  %70 = getelementptr inbounds nuw %struct.ogg_stream, ptr %69, i32 0, i32 22
  store i32 0, ptr %70, align 4, !tbaa !70
  br label %71

71:                                               ; preds = %68, %52
  %72 = load i32, ptr %11, align 4, !tbaa !37
  call void @llvm.lifetime.end.p0(i64 4, ptr %11) #10
  call void @llvm.lifetime.end.p0(i64 8, ptr %10) #10
  call void @llvm.lifetime.end.p0(i64 8, ptr %9) #10
  ret i32 %72
}