; Function Attrs: nounwind uwtable
define internal i32 @ogg_read_seek(ptr noundef %0, i32 noundef %1, i64 noundef %2, i32 noundef %3) #1 {
  %5 = getelementptr inbounds nuw i8, ptr %0, i64 24
  %6 = load ptr, ptr %5, align 8, !tbaa !12
  %7 = load ptr, ptr %6, align 8, !tbaa !35
  %8 = sext i32 %1 to i64
  %9 = getelementptr inbounds nuw i8, ptr %6, i64 8
  %10 = load i32, ptr %9, align 8, !tbaa !34
  %11 = icmp slt i32 %1, %10
  br i1 %11, label %13, label %12

12:                                               ; preds = %4
  tail call void (ptr, i32, ptr, ...) @av_log(ptr noundef null, i32 noundef 0, ptr noundef nonnull @.str.23, ptr noundef nonnull @.str.24, ptr noundef nonnull @.str.25, i32 noundef 942) #9
  tail call void @abort() #10
  unreachable

13:                                               ; preds = %4
  %14 = getelementptr inbounds nuw i8, ptr %0, i64 32
  %15 = load ptr, ptr %14, align 8, !tbaa !58
  %16 = tail call i64 @avio_seek(ptr noundef %15, i64 noundef 0, i32 noundef 1) #9
  %17 = load i32, ptr %9, align 8, !tbaa !34
  %18 = icmp sgt i32 %17, 0
  br i1 %18, label %.lr.ph.i, label %ogg_reset.exit

.lr.ph.i:                                         ; preds = %13
  %19 = getelementptr inbounds nuw i8, ptr %0, i64 496
  br label %20

20:                                               ; preds = %37, %.lr.ph.i
  %indvars.iv.i = phi i64 [ 0, %.lr.ph.i ], [ %indvars.iv.next.i, %37 ]
  %21 = load ptr, ptr %6, align 8, !tbaa !35
  %22 = getelementptr inbounds nuw %struct.ogg_stream, ptr %21, i64 %indvars.iv.i
  %23 = getelementptr inbounds nuw i8, ptr %22, i64 12
  store i32 0, ptr %23, align 4, !tbaa !73
  %24 = getelementptr inbounds nuw i8, ptr %22, i64 16
  store i32 0, ptr %24, align 8, !tbaa !74
  %25 = getelementptr inbounds nuw i8, ptr %22, i64 20
  store i32 0, ptr %25, align 4, !tbaa !75
  %26 = getelementptr inbounds nuw i8, ptr %22, i64 40
  store i64 -1, ptr %26, align 8, !tbaa !64
  %27 = getelementptr inbounds nuw i8, ptr %22, i64 56
  store i64 -9223372036854775808, ptr %27, align 8, !tbaa !56
  %28 = getelementptr inbounds nuw i8, ptr %22, i64 64
  store i64 -9223372036854775808, ptr %28, align 8, !tbaa !76
  %29 = getelementptr inbounds nuw i8, ptr %22, i64 72
  store i64 -1, ptr %29, align 8, !tbaa !77
  %30 = getelementptr inbounds nuw i8, ptr %22, i64 80
  store i64 0, ptr %30, align 8, !tbaa !78
  %31 = getelementptr inbounds nuw i8, ptr %22, i64 108
  store i32 0, ptr %31, align 4, !tbaa !79
  %32 = getelementptr inbounds nuw i8, ptr %22, i64 112
  store i32 0, ptr %32, align 8, !tbaa !80
  %33 = getelementptr inbounds nuw i8, ptr %22, i64 372
  store i32 0, ptr %33, align 4, !tbaa !81
  %34 = getelementptr inbounds nuw i8, ptr %22, i64 388
  store i32 0, ptr %34, align 4, !tbaa !82
  %35 = load i64, ptr %19, align 8, !tbaa !68
  %.not.i = icmp sgt i64 %16, %35
  br i1 %.not.i, label %37, label %36

36:                                               ; preds = %20
  store i64 0, ptr %27, align 8, !tbaa !56
  br label %37

37:                                               ; preds = %36, %20
  %38 = getelementptr inbounds nuw i8, ptr %22, i64 396
  store i32 0, ptr %38, align 4, !tbaa !83
  %39 = getelementptr inbounds nuw i8, ptr %22, i64 400
  store i32 0, ptr %39, align 8, !tbaa !84
  %40 = getelementptr inbounds nuw i8, ptr %22, i64 408
  tail call void @av_freep(ptr noundef nonnull %40) #9
  %41 = getelementptr inbounds nuw i8, ptr %22, i64 416
  store i64 0, ptr %41, align 8, !tbaa !85
  %indvars.iv.next.i = add nuw nsw i64 %indvars.iv.i, 1
  %42 = load i32, ptr %9, align 8, !tbaa !34
  %43 = sext i32 %42 to i64
  %44 = icmp slt i64 %indvars.iv.next.i, %43
  br i1 %44, label %20, label %ogg_reset.exit, !llvm.loop !86

ogg_reset.exit:                                   ; preds = %37, %13
  %45 = getelementptr inbounds nuw i8, ptr %6, i64 24
  store i64 -1, ptr %45, align 8, !tbaa !62
  %46 = getelementptr inbounds nuw i8, ptr %6, i64 16
  store i32 -1, ptr %46, align 8, !tbaa !27
  %47 = getelementptr inbounds nuw i8, ptr %0, i64 48
  %48 = load ptr, ptr %47, align 8, !tbaa !46
  %49 = getelementptr inbounds ptr, ptr %48, i64 %8
  %50 = load ptr, ptr %49, align 8, !tbaa !47
  %51 = getelementptr inbounds nuw i8, ptr %50, i64 16
  %52 = load ptr, ptr %51, align 8, !tbaa !90
  %53 = load i32, ptr %52, align 8, !tbaa !109
  %54 = and i32 %3, 4
  %55 = or i32 %53, %54
  %or.cond = icmp eq i32 %55, 0
  br i1 %or.cond, label %56, label %58

56:                                               ; preds = %ogg_reset.exit
  %57 = getelementptr inbounds %struct.ogg_stream, ptr %7, i64 %8, i32 22
  store i32 1, ptr %57, align 4, !tbaa !96
  br label %58

58:                                               ; preds = %56, %ogg_reset.exit
  %59 = tail call i32 @ff_seek_frame_binary(ptr noundef nonnull %0, i32 noundef %1, i64 noundef %2, i32 noundef %3) #9
  %60 = load ptr, ptr %5, align 8, !tbaa !12
  %61 = load ptr, ptr %14, align 8, !tbaa !58
  %62 = tail call i64 @avio_seek(ptr noundef %61, i64 noundef 0, i32 noundef 1) #9
  %63 = getelementptr inbounds nuw i8, ptr %60, i64 8
  %64 = load i32, ptr %63, align 8, !tbaa !34
  %65 = icmp sgt i32 %64, 0
  br i1 %65, label %.lr.ph.i19, label %ogg_reset.exit23

.lr.ph.i19:                                       ; preds = %58
  %66 = getelementptr inbounds nuw i8, ptr %0, i64 496
  br label %67

67:                                               ; preds = %84, %.lr.ph.i19
  %indvars.iv.i20 = phi i64 [ 0, %.lr.ph.i19 ], [ %indvars.iv.next.i22, %84 ]
  %68 = load ptr, ptr %60, align 8, !tbaa !35
  %69 = getelementptr inbounds nuw %struct.ogg_stream, ptr %68, i64 %indvars.iv.i20
  %70 = getelementptr inbounds nuw i8, ptr %69, i64 12
  store i32 0, ptr %70, align 4, !tbaa !73
  %71 = getelementptr inbounds nuw i8, ptr %69, i64 16
  store i32 0, ptr %71, align 8, !tbaa !74
  %72 = getelementptr inbounds nuw i8, ptr %69, i64 20
  store i32 0, ptr %72, align 4, !tbaa !75
  %73 = getelementptr inbounds nuw i8, ptr %69, i64 40
  store i64 -1, ptr %73, align 8, !tbaa !64
  %74 = getelementptr inbounds nuw i8, ptr %69, i64 56
  store i64 -9223372036854775808, ptr %74, align 8, !tbaa !56
  %75 = getelementptr inbounds nuw i8, ptr %69, i64 64
  store i64 -9223372036854775808, ptr %75, align 8, !tbaa !76
  %76 = getelementptr inbounds nuw i8, ptr %69, i64 72
  store i64 -1, ptr %76, align 8, !tbaa !77
  %77 = getelementptr inbounds nuw i8, ptr %69, i64 80
  store i64 0, ptr %77, align 8, !tbaa !78
  %78 = getelementptr inbounds nuw i8, ptr %69, i64 108
  store i32 0, ptr %78, align 4, !tbaa !79
  %79 = getelementptr inbounds nuw i8, ptr %69, i64 112
  store i32 0, ptr %79, align 8, !tbaa !80
  %80 = getelementptr inbounds nuw i8, ptr %69, i64 372
  store i32 0, ptr %80, align 4, !tbaa !81
  %81 = getelementptr inbounds nuw i8, ptr %69, i64 388
  store i32 0, ptr %81, align 4, !tbaa !82
  %82 = load i64, ptr %66, align 8, !tbaa !68
  %.not.i21 = icmp sgt i64 %62, %82
  br i1 %.not.i21, label %84, label %83

83:                                               ; preds = %67
  store i64 0, ptr %74, align 8, !tbaa !56
  br label %84

84:                                               ; preds = %83, %67
  %85 = getelementptr inbounds nuw i8, ptr %69, i64 396
  store i32 0, ptr %85, align 4, !tbaa !83
  %86 = getelementptr inbounds nuw i8, ptr %69, i64 400
  store i32 0, ptr %86, align 8, !tbaa !84
  %87 = getelementptr inbounds nuw i8, ptr %69, i64 408
  tail call void @av_freep(ptr noundef nonnull %87) #9
  %88 = getelementptr inbounds nuw i8, ptr %69, i64 416
  store i64 0, ptr %88, align 8, !tbaa !85
  %indvars.iv.next.i22 = add nuw nsw i64 %indvars.iv.i20, 1
  %89 = load i32, ptr %63, align 8, !tbaa !34
  %90 = sext i32 %89 to i64
  %91 = icmp slt i64 %indvars.iv.next.i22, %90
  br i1 %91, label %67, label %ogg_reset.exit23, !llvm.loop !86

ogg_reset.exit23:                                 ; preds = %84, %58
  %92 = getelementptr inbounds nuw i8, ptr %60, i64 24
  store i64 -1, ptr %92, align 8, !tbaa !62
  %93 = getelementptr inbounds nuw i8, ptr %60, i64 16
  store i32 -1, ptr %93, align 8, !tbaa !27
  %94 = icmp slt i32 %59, 0
  br i1 %94, label %95, label %98

95:                                               ; preds = %ogg_reset.exit23
  %96 = load ptr, ptr %6, align 8, !tbaa !35
  %97 = getelementptr inbounds %struct.ogg_stream, ptr %96, i64 %8, i32 22
  store i32 0, ptr %97, align 4, !tbaa !96
  br label %98

98:                                               ; preds = %95, %ogg_reset.exit23
  ret i32 %59
}